; Function Attrs: mustprogress null_pointer_is_valid sspstrong uwtable
define void @_ZN14SyntaxLineEdit22completionFocusInEventEP11QFocusEvent(ptr noundef align 8 dereferenceable_or_null(185) %0, ptr noundef %1) local_unnamed_addr #0 align 2 {
  %3 = getelementptr inbounds nuw i8, ptr %0, i64 40
  %4 = load ptr, ptr %3, align 8
  %.not = icmp eq ptr %4, null
  br i1 %.not, label %6, label %5

5:                                                ; preds = %2
  tail call void @_ZN10QCompleter9setWidgetEP7QWidget(ptr noundef nonnull align 8 dereferenceable_or_null(16) %4, ptr noundef %0)
  br label %6

6:                                                ; preds = %5, %2
  tail call void @_ZN9QLineEdit12focusInEventEP11QFocusEvent(ptr noundef align 8 dereferenceable_or_null(40) %0, ptr noundef %1)
  ret void
}